; Function Attrs: nounwind uwtable
define ptr @l_Array_forIn_x27Unsafe_loop___at_Lake_LeanExe_recBuildExe___spec__18___lambda__2(ptr noundef %0, i64 noundef %1, i64 noundef %2, ptr noundef %3, ptr noundef %4, ptr noundef %5, i64 noundef %6, ptr noundef %7, ptr noundef %8, ptr noundef %9, ptr noundef %10, ptr noundef %11, ptr noundef %12, ptr noundef %13) local_unnamed_addr #0 {
  %15 = ptrtoint ptr %7 to i64
  %16 = and i64 %15, 1
  %.not.i63 = icmp eq i64 %16, 0
  br i1 %.not.i63, label %20, label %17

17:                                               ; preds = %14
  %18 = lshr i64 %15, 1
  %19 = trunc i64 %18 to i32
  br label %lean_obj_tag.exit

20:                                               ; preds = %14
  %21 = getelementptr i8, ptr %7, i64 4
  %.val.i = load i32, ptr %21, align 4
  %22 = lshr i32 %.val.i, 24
  br label %lean_obj_tag.exit

lean_obj_tag.exit:                                ; preds = %17, %20
  %.0.i = phi i32 [ %19, %17 ], [ %22, %20 ]
  %23 = icmp eq i32 %.0.i, 0
  br i1 %23, label %24, label %106

24:                                               ; preds = %lean_obj_tag.exit
  %25 = ptrtoint ptr %5 to i64
  %26 = and i64 %25, 1
  %.not76 = icmp eq i64 %26, 0
  br i1 %.not76, label %27, label %lean_dec.exit47

27:                                               ; preds = %24
  %28 = load i32, ptr %5, align 4, !tbaa !4
  %29 = icmp sgt i32 %28, 1
  br i1 %29, label %30, label %32, !prof !9

30:                                               ; preds = %27
  %31 = add nsw i32 %28, -1
  store i32 %31, ptr %5, align 4, !tbaa !4
  br label %lean_dec.exit47

32:                                               ; preds = %27
  %.not.i = icmp eq i32 %28, 0
  br i1 %.not.i, label %lean_dec.exit47, label %33

33:                                               ; preds = %32
  tail call void @lean_dec_ref_cold(ptr noundef nonnull %5) #6
  br label %lean_dec.exit47

lean_dec.exit47:                                  ; preds = %33, %32, %30, %24
  %34 = ptrtoint ptr %4 to i64
  %35 = and i64 %34, 1
  %.not77 = icmp eq i64 %35, 0
  br i1 %.not77, label %36, label %lean_dec.exit46

36:                                               ; preds = %lean_dec.exit47
  %37 = load i32, ptr %4, align 4, !tbaa !4
  %38 = icmp sgt i32 %37, 1
  br i1 %38, label %39, label %41, !prof !9

39:                                               ; preds = %36
  %40 = add nsw i32 %37, -1
  store i32 %40, ptr %4, align 4, !tbaa !4
  br label %lean_dec.exit46

41:                                               ; preds = %36
  %.not.i51 = icmp eq i32 %37, 0
  br i1 %.not.i51, label %lean_dec.exit46, label %42

42:                                               ; preds = %41
  tail call void @lean_dec_ref_cold(ptr noundef nonnull %4) #6
  br label %lean_dec.exit46

lean_dec.exit46:                                  ; preds = %42, %41, %39, %lean_dec.exit47
  %43 = ptrtoint ptr %3 to i64
  %44 = and i64 %43, 1
  %.not78 = icmp eq i64 %44, 0
  br i1 %.not78, label %45, label %lean_dec.exit45

45:                                               ; preds = %lean_dec.exit46
  %46 = load i32, ptr %3, align 4, !tbaa !4
  %47 = icmp sgt i32 %46, 1
  br i1 %47, label %48, label %50, !prof !9

48:                                               ; preds = %45
  %49 = add nsw i32 %46, -1
  store i32 %49, ptr %3, align 4, !tbaa !4
  br label %lean_dec.exit45

50:                                               ; preds = %45
  %.not.i53 = icmp eq i32 %46, 0
  br i1 %.not.i53, label %lean_dec.exit45, label %51

51:                                               ; preds = %50
  tail call void @lean_dec_ref_cold(ptr noundef nonnull %3) #6
  br label %lean_dec.exit45

lean_dec.exit45:                                  ; preds = %51, %50, %48, %lean_dec.exit46
  %52 = getelementptr inbounds nuw i8, ptr %7, i64 8
  %53 = load ptr, ptr %52, align 8, !tbaa !10
  %54 = ptrtoint ptr %53 to i64
  %55 = and i64 %54, 1
  %.not79 = icmp eq i64 %55, 0
  br i1 %.not79, label %56, label %lean_inc.exit50

56:                                               ; preds = %lean_dec.exit45
  %.val.i64 = load i32, ptr %53, align 4, !tbaa !4
  %57 = icmp sgt i32 %.val.i64, 0
  br i1 %57, label %58, label %60, !prof !9

58:                                               ; preds = %56
  %59 = add nuw i32 %.val.i64, 1
  store i32 %59, ptr %53, align 4, !tbaa !4
  br label %lean_inc.exit50

60:                                               ; preds = %56
  %.not.i65 = icmp eq i32 %.val.i64, 0
  br i1 %.not.i65, label %lean_inc.exit50, label %61

61:                                               ; preds = %60
  tail call void @lean_inc_ref_cold(ptr noundef nonnull %53) #6
  br label %lean_inc.exit50

lean_inc.exit50:                                  ; preds = %61, %60, %58, %lean_dec.exit45
  br i1 %.not.i63, label %62, label %lean_dec.exit44

62:                                               ; preds = %lean_inc.exit50
  %63 = load i32, ptr %7, align 4, !tbaa !4
  %64 = icmp sgt i32 %63, 1
  br i1 %64, label %65, label %67, !prof !9

65:                                               ; preds = %62
  %66 = add nsw i32 %63, -1
  store i32 %66, ptr %7, align 4, !tbaa !4
  br label %lean_dec.exit44

67:                                               ; preds = %62
  %.not.i55 = icmp eq i32 %63, 0
  br i1 %.not.i55, label %lean_dec.exit44, label %68

68:                                               ; preds = %67
  tail call void @lean_dec_ref_cold(ptr noundef nonnull %7) #6
  br label %lean_dec.exit44

lean_dec.exit44:                                  ; preds = %68, %67, %65, %lean_inc.exit50
  %69 = getelementptr inbounds nuw i8, ptr %0, i64 8
  %70 = load ptr, ptr %69, align 8, !tbaa !10
  %71 = ptrtoint ptr %70 to i64
  %72 = and i64 %71, 1
  %.not81 = icmp eq i64 %72, 0
  br i1 %.not81, label %73, label %lean_inc.exit49

73:                                               ; preds = %lean_dec.exit44
  %.val.i66 = load i32, ptr %70, align 4, !tbaa !4
  %74 = icmp sgt i32 %.val.i66, 0
  br i1 %74, label %75, label %77, !prof !9

75:                                               ; preds = %73
  %76 = add nuw i32 %.val.i66, 1
  store i32 %76, ptr %70, align 4, !tbaa !4
  br label %lean_inc.exit49

77:                                               ; preds = %73
  %.not.i67 = icmp eq i32 %.val.i66, 0
  br i1 %.not.i67, label %lean_inc.exit49, label %78

78:                                               ; preds = %77
  tail call void @lean_inc_ref_cold(ptr noundef nonnull %70) #6
  br label %lean_inc.exit49

lean_inc.exit49:                                  ; preds = %78, %77, %75, %lean_dec.exit44
  %79 = ptrtoint ptr %0 to i64
  %80 = and i64 %79, 1
  %.not82 = icmp eq i64 %80, 0
  br i1 %.not82, label %81, label %lean_dec.exit43

81:                                               ; preds = %lean_inc.exit49
  %82 = load i32, ptr %0, align 4, !tbaa !4
  %83 = icmp sgt i32 %82, 1
  br i1 %83, label %84, label %86, !prof !9

84:                                               ; preds = %81
  %85 = add nsw i32 %82, -1
  store i32 %85, ptr %0, align 4, !tbaa !4
  br label %lean_dec.exit43

86:                                               ; preds = %81
  %.not.i57 = icmp eq i32 %82, 0
  br i1 %.not.i57, label %lean_dec.exit43, label %87

87:                                               ; preds = %86
  tail call void @lean_dec_ref_cold(ptr noundef nonnull %0) #6
  br label %lean_dec.exit43

lean_dec.exit43:                                  ; preds = %87, %86, %84, %lean_inc.exit49
  %88 = getelementptr inbounds nuw i8, ptr %70, i64 16
  %89 = load ptr, ptr %88, align 8, !tbaa !10
  %90 = ptrtoint ptr %89 to i64
  %91 = and i64 %90, 1
  %.not83 = icmp eq i64 %91, 0
  br i1 %.not83, label %92, label %lean_inc.exit48

92:                                               ; preds = %lean_dec.exit43
  %.val.i69 = load i32, ptr %89, align 4, !tbaa !4
  %93 = icmp sgt i32 %.val.i69, 0
  br i1 %93, label %94, label %96, !prof !9

94:                                               ; preds = %92
  %95 = add nuw i32 %.val.i69, 1
  store i32 %95, ptr %89, align 4, !tbaa !4
  br label %lean_inc.exit48

96:                                               ; preds = %92
  %.not.i70 = icmp eq i32 %.val.i69, 0
  br i1 %.not.i70, label %lean_inc.exit48, label %97

97:                                               ; preds = %96
  tail call void @lean_inc_ref_cold(ptr noundef nonnull %89) #6
  br label %lean_inc.exit48

lean_inc.exit48:                                  ; preds = %97, %96, %94, %lean_dec.exit43
  br i1 %.not81, label %98, label %lean_dec.exit42

98:                                               ; preds = %lean_inc.exit48
  %99 = load i32, ptr %70, align 4, !tbaa !4
  %100 = icmp sgt i32 %99, 1
  br i1 %100, label %101, label %103, !prof !9

101:                                              ; preds = %98
  %102 = add nsw i32 %99, -1
  store i32 %102, ptr %70, align 4, !tbaa !4
  br label %lean_dec.exit42

103:                                              ; preds = %98
  %.not.i59 = icmp eq i32 %99, 0
  br i1 %.not.i59, label %lean_dec.exit42, label %104

104:                                              ; preds = %103
  tail call void @lean_dec_ref_cold(ptr noundef nonnull %70) #6
  br label %lean_dec.exit42

lean_dec.exit42:                                  ; preds = %104, %103, %101, %lean_inc.exit48
  %105 = tail call ptr @lean_apply_8(ptr noundef %89, ptr noundef nonnull inttoptr (i64 1 to ptr), ptr noundef %53, ptr noundef %8, ptr noundef %9, ptr noundef %10, ptr noundef %11, ptr noundef %12, ptr noundef %13) #6
  br label %126

106:                                              ; preds = %lean_obj_tag.exit
  %107 = getelementptr inbounds nuw i8, ptr %7, i64 8
  %108 = load ptr, ptr %107, align 8, !tbaa !10
  %109 = ptrtoint ptr %108 to i64
  %110 = and i64 %109, 1
  %.not = icmp eq i64 %110, 0
  br i1 %.not, label %111, label %lean_inc.exit

111:                                              ; preds = %106
  %.val.i72 = load i32, ptr %108, align 4, !tbaa !4
  %112 = icmp sgt i32 %.val.i72, 0
  br i1 %112, label %113, label %115, !prof !9

113:                                              ; preds = %111
  %114 = add nuw i32 %.val.i72, 1
  store i32 %114, ptr %108, align 4, !tbaa !4
  br label %lean_inc.exit

115:                                              ; preds = %111
  %.not.i73 = icmp eq i32 %.val.i72, 0
  br i1 %.not.i73, label %lean_inc.exit, label %116

116:                                              ; preds = %115
  tail call void @lean_inc_ref_cold(ptr noundef nonnull %108) #6
  br label %lean_inc.exit

lean_inc.exit:                                    ; preds = %116, %115, %113, %106
  br i1 %.not.i63, label %117, label %lean_dec.exit

117:                                              ; preds = %lean_inc.exit
  %118 = load i32, ptr %7, align 4, !tbaa !4
  %119 = icmp sgt i32 %118, 1
  br i1 %119, label %120, label %122, !prof !9

120:                                              ; preds = %117
  %121 = add nsw i32 %118, -1
  store i32 %121, ptr %7, align 4, !tbaa !4
  br label %lean_dec.exit

122:                                              ; preds = %117
  %.not.i61 = icmp eq i32 %118, 0
  br i1 %.not.i61, label %lean_dec.exit, label %123

123:                                              ; preds = %122
  tail call void @lean_dec_ref_cold(ptr noundef nonnull %7) #6
  br label %lean_dec.exit

lean_dec.exit:                                    ; preds = %123, %122, %120, %lean_inc.exit
  %124 = add i64 %1, 1
  %125 = tail call ptr @l_Array_forIn_x27Unsafe_loop___at_Lake_LeanExe_recBuildExe___spec__18(ptr noundef %0, i64 noundef %2, ptr noundef %3, ptr noundef %4, ptr noundef %5, i64 noundef %6, i64 noundef %124, ptr noundef %108, ptr noundef %8, ptr noundef %9, ptr noundef %10, ptr noundef %11, ptr noundef %12, ptr noundef %13)
  br label %126

126:                                              ; preds = %lean_dec.exit, %lean_dec.exit42
  %.0 = phi ptr [ %105, %lean_dec.exit42 ], [ %125, %lean_dec.exit ]
  ret ptr %.0
}